target datalayout = "e-m:e-p270:32:32-p271:32:32-p272:64:64-i64:64-i128:128-f80:128-n8:16:32:64-S128"
target triple = "x86_64-unknown-linux-gnu"

%class.btMatrix3x3 = type { [3 x %class.btVector3] }
%class.btVector3 = type { [4 x float] }

; Function Attrs: mustprogress nounwind uwtable
define linkonce_odr dso_local noundef ptr @_ZNK9btVector3cvPKfEv(ptr noundef nonnull align 4 dereferenceable(16) %this) #1 comdat align 2 {
entry:
  %this.addr = alloca ptr, align 8
  store ptr %this, ptr %this.addr, align 8
  %this1 = load ptr, ptr %this.addr, align 8
  %m_floats = getelementptr inbounds %class.btVector3, ptr %this1, i32 0, i32 0
  %arrayidx = getelementptr inbounds [4 x float], ptr %m_floats, i64 0, i64 0
  ret ptr %arrayidx
}

; Function Attrs: mustprogress nounwind uwtable
define linkonce_odr dso_local noundef nonnull align 4 dereferenceable(16) ptr @_ZNK11btMatrix3x3ixEi(ptr noundef nonnull align 4 dereferenceable(48) %this, i32 noundef %i) #1 comdat align 2 {
entry:
  %this.addr = alloca ptr, align 8
  %i.addr = alloca i32, align 4
  store ptr %this, ptr %this.addr, align 8
  store i32 %i, ptr %i.addr, align 4
  %this1 = load ptr, ptr %this.addr, align 8
  %m_el = getelementptr inbounds %class.btMatrix3x3, ptr %this1, i32 0, i32 0
  %0 = load i32, ptr %i.addr, align 4
  %idxprom = sext i32 %0 to i64
  %arrayidx = getelementptr inbounds [3 x %class.btVector3], ptr %m_el, i64 0, i64 %idxprom
  ret ptr %arrayidx
}

; Function Attrs: mustprogress uwtable
define dso_local noundef float @_ZN30btGeneric6DofSpring2Constraint15btGetMatrixElemERK11btMatrix3x3i(ptr noundef nonnull align 4 dereferenceable(48) %mat, i32 noundef %index) #2 align 2 {
entry:
  %mat.addr = alloca ptr, align 8
  %index.addr = alloca i32, align 4
  %i = alloca i32, align 4
  %j = alloca i32, align 4
  store ptr %mat, ptr %mat.addr, align 8
  store i32 %index, ptr %index.addr, align 4
  %0 = load i32, ptr %index.addr, align 4
  %rem = srem i32 %0, 3
  store i32 %rem, ptr %i, align 4
  %1 = load i32, ptr %index.addr, align 4
  %div = sdiv i32 %1, 3
  store i32 %div, ptr %j, align 4
  %2 = load ptr, ptr %mat.addr, align 8
  %3 = load i32, ptr %i, align 4
  %call = call noundef nonnull align 4 dereferenceable(16) ptr @_ZNK11btMatrix3x3ixEi(ptr noundef nonnull align 4 dereferenceable(48) %2, i32 noundef %3)
  %call1 = call noundef ptr @_ZNK9btVector3cvPKfEv(ptr noundef nonnull align 4 dereferenceable(16) %call)
  %4 = load i32, ptr %j, align 4
  %idxprom = sext i32 %4 to i64
  %arrayidx = getelementptr inbounds float, ptr %call1, i64 %idxprom
  %5 = load float, ptr %arrayidx, align 4
  ret float %5
}