; Function Attrs: mustprogress nofree norecurse nosync nounwind willreturn memory(argmem: read) uwtable
define dso_local noundef float @_ZN30btGeneric6DofSpring2Constraint15btGetMatrixElemERK11btMatrix3x3i(ptr nocapture noundef nonnull readonly align 4 dereferenceable(48) %mat, i32 noundef %index) local_unnamed_addr #5 align 2 {
entry:
  %rem = srem i32 %index, 3
  %div = sdiv i32 %index, 3
  %idxprom.i = sext i32 %rem to i64
  %arrayidx.i = getelementptr inbounds [3 x %class.btVector3], ptr %mat, i64 0, i64 %idxprom.i
  %idxprom = sext i32 %div to i64
  %arrayidx = getelementptr inbounds float, ptr %arrayidx.i, i64 %idxprom
  %0 = load float, ptr %arrayidx, align 4
  ret float %0
}